; Function Attrs: nounwind uwtable
define hidden i32 @lj_ir_tostr(ptr noundef %0, i32 noundef %1) local_unnamed_addr #6 {
  %3 = and i32 %1, 520093696
  %4 = icmp eq i32 %3, 67108864
  br i1 %4, label %19, label %5

5:                                                ; preds = %2
  %6 = lshr i32 %1, 24
  %7 = and i32 %6, 30
  %8 = add nsw i32 %7, -14
  %9 = icmp ult i32 %8, 6
  br i1 %9, label %11, label %10

10:                                               ; preds = %5
  tail call void @lj_trace_err(ptr noundef %0, i32 noundef 11) #14
  unreachable

11:                                               ; preds = %5
  %12 = trunc i32 %1 to i16
  %13 = icmp eq i32 %3, 234881024
  %14 = zext i1 %13 to i16
  %15 = getelementptr inbounds nuw i8, ptr %0, i64 184
  %16 = getelementptr inbounds nuw i8, ptr %0, i64 188
  store i16 23812, ptr %16, align 4, !tbaa !33
  store i16 %12, ptr %15, align 8, !tbaa !33
  %17 = getelementptr inbounds nuw i8, ptr %0, i64 186
  store i16 %14, ptr %17, align 2, !tbaa !33
  %18 = tail call i32 @lj_opt_fold(ptr noundef %0) #13
  br label %19

19:                                               ; preds = %11, %2
  %.0 = phi i32 [ %1, %2 ], [ %18, %11 ]
  ret i32 %.0
}